; Function Attrs: mustprogress uwtable
define void @_ZN8proxygen15HTTPTransaction16onPriorityUpdateERKNS_5http214PriorityUpdateE(ptr noundef nonnull align 8 dereferenceable(912) %this, ptr nocapture noundef nonnull readonly align 8 dereferenceable(16) %priority) local_unnamed_addr #3 align 2 personality ptr @__gxx_personality_v0 {
entry:
  %ref.tmp = alloca %"class.google::LogMessage", align 8
  %queueHandle_ = getelementptr inbounds i8, ptr %this, i64 408
  %0 = load ptr, ptr %queueHandle_, align 8
  %tobool.not = icmp eq ptr %0, null
  br i1 %tobool.not, label %if.then, label %if.end

if.then:                                          ; preds = %entry
  call void @_ZN6google10LogMessageC1EPKcii(ptr noundef nonnull align 8 dereferenceable(96) %ref.tmp, ptr noundef nonnull @.str, i32 noundef 1861, i32 noundef 2)
  %call = invoke noundef nonnull align 8 dereferenceable(8) ptr @_ZN6google10LogMessage6streamEv(ptr noundef nonnull align 8 dereferenceable(96) %ref.tmp)
          to label %invoke.cont unwind label %lpad

invoke.cont:                                      ; preds = %if.then
  %call3 = invoke noundef nonnull align 8 dereferenceable(8) ptr @_ZStlsISt11char_traitsIcEERSt13basic_ostreamIcT_ES5_PKc(ptr noundef nonnull align 8 dereferenceable(8) %call, ptr noundef nonnull @.str.137)
          to label %invoke.cont2 unwind label %lpad

invoke.cont2:                                     ; preds = %invoke.cont
  call void @_ZN6google10LogMessageD1Ev(ptr noundef nonnull align 8 dereferenceable(96) %ref.tmp) #27
  br label %if.end14

lpad:                                             ; preds = %invoke.cont, %if.then
  %1 = landingpad { ptr, i32 }
          cleanup
  call void @_ZN6google10LogMessageD1Ev(ptr noundef nonnull align 8 dereferenceable(96) %ref.tmp) #27
  resume { ptr, i32 } %1

if.end:                                           ; preds = %entry
  %priority_ = getelementptr inbounds i8, ptr %this, i64 552
  tail call void @llvm.memcpy.p0.p0.i64(ptr noundef nonnull align 8 dereferenceable(16) %priority_, ptr noundef nonnull align 8 dereferenceable(16) %priority, i64 16, i1 false)
  %egressQueue_ = getelementptr inbounds i8, ptr %this, i64 400
  %2 = load ptr, ptr %egressQueue_, align 8
  %agg.tmp.sroa.0.0.copyload = load i64, ptr %priority_, align 8
  %agg.tmp.sroa.2.0.priority_5.sroa_idx = getelementptr inbounds i8, ptr %this, i64 560
  %agg.tmp.sroa.2.0.copyload = load i64, ptr %agg.tmp.sroa.2.0.priority_5.sroa_idx, align 8
  %currentDepth_ = getelementptr inbounds i8, ptr %this, i64 576
  %vtable = load ptr, ptr %2, align 8
  %vfn = getelementptr inbounds i8, ptr %vtable, i64 32
  %3 = load ptr, ptr %vfn, align 8
  %call6 = tail call noundef ptr %3(ptr noundef nonnull align 8 dereferenceable(16) %2, ptr noundef nonnull %0, i64 %agg.tmp.sroa.0.0.copyload, i64 %agg.tmp.sroa.2.0.copyload, ptr noundef nonnull %currentDepth_)
  store ptr %call6, ptr %queueHandle_, align 8
  %4 = load i64, ptr %priority_, align 8
  %5 = load ptr, ptr %egressQueue_, align 8
  %rootNodeId_.i = getelementptr inbounds i8, ptr %5, i64 8
  %6 = load i64, ptr %rootNodeId_.i, align 8
  %cmp.not = icmp ne i64 %4, %6
  %7 = load i64, ptr %currentDepth_, align 8
  %cmp12 = icmp eq i64 %7, 1
  %or.cond = select i1 %cmp.not, i1 %cmp12, i1 false
  br i1 %or.cond, label %if.then13, label %if.end14

if.then13:                                        ; preds = %if.end
  %priorityFallback_ = getelementptr inbounds i8, ptr %this, i64 728
  %bf.load = load i32, ptr %priorityFallback_, align 8
  %bf.set = or i32 %bf.load, 8192
  store i32 %bf.set, ptr %priorityFallback_, align 8
  br label %if.end14

if.end14:                                         ; preds = %if.then13, %if.end, %invoke.cont2
  ret void
}